target datalayout = "e-m:e-p270:32:32-p271:32:32-p272:64:64-i64:64-i128:128-f80:128-n8:16:32:64-S128"
target triple = "x86_64-pc-linux-gnu"

%struct.quic_obj_st = type { %struct.ssl_st, ptr, ptr, ptr, ptr, ptr, i64, i8 }
%struct.ssl_st = type { i32, ptr, ptr, ptr, %struct.CRYPTO_REF_COUNT, ptr, %struct.crypto_ex_data_st }
%struct.CRYPTO_REF_COUNT = type { i32 }
%struct.crypto_ex_data_st = type { ptr, ptr }
%struct.OSSL_TIME = type { i64 }
%struct.srp_ctx_st = type { ptr, ptr, ptr, ptr, ptr, ptr, ptr, ptr, ptr, ptr, ptr, ptr, ptr, ptr, i32, i64 }
%struct.ssl_ctx_st = type { ptr, ptr, ptr, ptr, ptr, ptr, ptr, i64, ptr, ptr, i32, %struct.OSSL_TIME, ptr, ptr, ptr, %struct.anon.3, %struct.CRYPTO_REF_COUNT, ptr, ptr, ptr, ptr, ptr, ptr, ptr, ptr, ptr, %struct.crypto_ex_data_st, ptr, ptr, ptr, ptr, ptr, ptr, ptr, i64, i32, i32, i32, i64, ptr, ptr, i32, ptr, ptr, i32, i64, [32 x i8], ptr, ptr, ptr, i32, ptr, ptr, ptr, i64, i64, i64, i64, ptr, ptr, ptr, ptr, ptr, %struct.anon.4, ptr, ptr, ptr, ptr, %struct.srp_ctx_st, %struct.dane_ctx_st, ptr, ptr, ptr, ptr, i32, i32, ptr, ptr, i64, i64, ptr, ptr, ptr, i64, ptr, ptr, i32, ptr, ptr, ptr, [14 x i32], [24 x ptr], [14 x ptr], [14 x i64], i64, ptr, ptr, ptr, i64, i64, ptr, i64, i64, i32, i32, i32, i32, ptr, i64, ptr, i64, i64, ptr, ptr }
%struct.anon.3 = type { i32, i32, i32, i32, i32, i32, i32, i32, i32, i32, i32 }
%struct.anon.4 = type { ptr, ptr, [16 x i8], ptr, ptr, ptr, ptr, ptr, i32, i8, i64, ptr, i64, ptr, i64, ptr, i64, ptr, ptr, i64, ptr, ptr, ptr, i64, ptr, ptr, ptr, ptr, [32 x i8] }
%struct.dane_ctx_st = type { ptr, ptr, i8, i64 }
%struct.quic_engine_args_st = type { ptr, ptr, ptr, i64 }
%struct.quic_port_args_st = type { ptr, ptr, ptr, ptr, i32, i32 }
%struct.quic_listener_st = type { %struct.quic_obj_st, ptr, ptr, ptr, ptr, i8 }

@.str = private unnamed_addr constant [32 x i8] c"../openssl/ssl/quic/quic_impl.c\00", align 1
@__func__.ossl_quic_new_listener = private unnamed_addr constant [23 x i8] c"ossl_quic_new_listener\00", align 1

; Function Attrs: nounwind uwtable
define internal i32 @need_notifier_for_domain_flags(i64 noundef %0) #0 {
  %2 = alloca i64, align 8
  store i64 %0, ptr %2, align 8, !tbaa !169
  %3 = load i64, ptr %2, align 8, !tbaa !169
  %4 = and i64 %3, 4
  %5 = icmp ne i64 %4, 0
  br i1 %5, label %16, label %6

6:                                                ; preds = %1
  %7 = load i64, ptr %2, align 8, !tbaa !169
  %8 = and i64 %7, 2
  %9 = icmp ne i64 %8, 0
  br i1 %9, label %10, label %14

10:                                               ; preds = %6
  %11 = load i64, ptr %2, align 8, !tbaa !169
  %12 = and i64 %11, 8
  %13 = icmp ne i64 %12, 0
  br label %14

14:                                               ; preds = %10, %6
  %15 = phi i1 [ false, %6 ], [ %13, %10 ]
  br label %16

16:                                               ; preds = %14, %1
  %17 = phi i1 [ true, %1 ], [ %15, %14 ]
  %18 = zext i1 %17 to i32
  ret i32 %18
}

; Function Attrs: nounwind uwtable
define ptr @ossl_quic_new_listener(ptr noundef %0, i64 noundef %1) #0 {
  %3 = alloca ptr, align 8
  %4 = alloca ptr, align 8
  %5 = alloca i64, align 8
  %6 = alloca ptr, align 8
  %7 = alloca %struct.quic_engine_args_st, align 8
  %8 = alloca %struct.quic_port_args_st, align 8
  %9 = alloca i32, align 4
  store ptr %0, ptr %4, align 8, !tbaa !3
  store i64 %1, ptr %5, align 8, !tbaa !169
  call void @llvm.lifetime.start.p0(i64 8, ptr %6) #10
  store ptr null, ptr %6, align 8, !tbaa !260
  call void @llvm.lifetime.start.p0(i64 32, ptr %7) #10
  call void @llvm.memset.p0.i64(ptr align 8 %7, i8 0, i64 32, i1 false)
  call void @llvm.lifetime.start.p0(i64 40, ptr %8) #10
  call void @llvm.memset.p0.i64(ptr align 8 %8, i8 0, i64 40, i1 false)
  %10 = call noalias ptr @CRYPTO_zalloc(i64 noundef 160, ptr noundef @.str, i32 noundef 4234)
  store ptr %10, ptr %6, align 8, !tbaa !260
  %11 = icmp eq ptr %10, null
  br i1 %11, label %12, label %14

12:                                               ; preds = %2
  %13 = call i32 (ptr, ptr, i32, ptr, i32, ptr, ...) @quic_raise_non_normal_error(ptr noundef null, ptr noundef @.str, i32 noundef 4235, ptr noundef @__func__.ossl_quic_new_listener, i32 noundef 524303, ptr noundef null)
  br label %95

14:                                               ; preds = %2
  %15 = call ptr @ossl_crypto_mutex_new()
  %16 = load ptr, ptr %6, align 8, !tbaa !260
  %17 = getelementptr inbounds nuw %struct.quic_listener_st, ptr %16, i32 0, i32 4
  store ptr %15, ptr %17, align 8, !tbaa !261
  %18 = icmp eq ptr %15, null
  br i1 %18, label %19, label %21

19:                                               ; preds = %14
  %20 = call i32 (ptr, ptr, i32, ptr, i32, ptr, ...) @quic_raise_non_normal_error(ptr noundef null, ptr noundef @.str, i32 noundef 4241, ptr noundef @__func__.ossl_quic_new_listener, i32 noundef 524303, ptr noundef null)
  br label %95

21:                                               ; preds = %14
  %22 = load ptr, ptr %4, align 8, !tbaa !3
  %23 = getelementptr inbounds nuw %struct.ssl_ctx_st, ptr %22, i32 0, i32 0
  %24 = load ptr, ptr %23, align 8, !tbaa !125
  %25 = getelementptr inbounds nuw %struct.quic_engine_args_st, ptr %7, i32 0, i32 0
  store ptr %24, ptr %25, align 8, !tbaa !126
  %26 = load ptr, ptr %4, align 8, !tbaa !3
  %27 = getelementptr inbounds nuw %struct.ssl_ctx_st, ptr %26, i32 0, i32 89
  %28 = load ptr, ptr %27, align 8, !tbaa !128
  %29 = getelementptr inbounds nuw %struct.quic_engine_args_st, ptr %7, i32 0, i32 1
  store ptr %28, ptr %29, align 8, !tbaa !129
  %30 = load ptr, ptr %6, align 8, !tbaa !260
  %31 = getelementptr inbounds nuw %struct.quic_listener_st, ptr %30, i32 0, i32 4
  %32 = load ptr, ptr %31, align 8, !tbaa !261
  %33 = getelementptr inbounds nuw %struct.quic_engine_args_st, ptr %7, i32 0, i32 2
  store ptr %32, ptr %33, align 8, !tbaa !130
  %34 = load ptr, ptr %4, align 8, !tbaa !3
  %35 = getelementptr inbounds nuw %struct.ssl_ctx_st, ptr %34, i32 0, i32 111
  %36 = load i64, ptr %35, align 8, !tbaa !91
  %37 = call i32 @need_notifier_for_domain_flags(i64 noundef %36)
  %38 = icmp ne i32 %37, 0
  br i1 %38, label %39, label %43

39:                                               ; preds = %21
  %40 = getelementptr inbounds nuw %struct.quic_engine_args_st, ptr %7, i32 0, i32 3
  %41 = load i64, ptr %40, align 8, !tbaa !131
  %42 = or i64 %41, 1
  store i64 %42, ptr %40, align 8, !tbaa !131
  br label %43

43:                                               ; preds = %39, %21
  %44 = call ptr @ossl_quic_engine_new(ptr noundef %7)
  %45 = load ptr, ptr %6, align 8, !tbaa !260
  %46 = getelementptr inbounds nuw %struct.quic_listener_st, ptr %45, i32 0, i32 2
  store ptr %44, ptr %46, align 8, !tbaa !165
  %47 = icmp eq ptr %44, null
  br i1 %47, label %48, label %50

48:                                               ; preds = %43
  %49 = call i32 (ptr, ptr, i32, ptr, i32, ptr, ...) @quic_raise_non_normal_error(ptr noundef null, ptr noundef @.str, i32 noundef 4256, ptr noundef @__func__.ossl_quic_new_listener, i32 noundef 786691, ptr noundef null)
  br label %95

50:                                               ; preds = %43
  %51 = load ptr, ptr %4, align 8, !tbaa !3
  %52 = getelementptr inbounds nuw %struct.quic_port_args_st, ptr %8, i32 0, i32 3
  store ptr %51, ptr %52, align 8, !tbaa !132
  %53 = getelementptr inbounds nuw %struct.quic_port_args_st, ptr %8, i32 0, i32 4
  store i32 1, ptr %53, align 8, !tbaa !262
  %54 = getelementptr inbounds nuw %struct.quic_port_args_st, ptr %8, i32 0, i32 1
  store ptr @alloc_port_user_ssl, ptr %54, align 8, !tbaa !263
  %55 = load ptr, ptr %6, align 8, !tbaa !260
  %56 = getelementptr inbounds nuw %struct.quic_port_args_st, ptr %8, i32 0, i32 2
  store ptr %55, ptr %56, align 8, !tbaa !264
  %57 = load i64, ptr %5, align 8, !tbaa !169
  %58 = and i64 %57, 2
  %59 = icmp eq i64 %58, 0
  br i1 %59, label %60, label %62

60:                                               ; preds = %50
  %61 = getelementptr inbounds nuw %struct.quic_port_args_st, ptr %8, i32 0, i32 5
  store i32 1, ptr %61, align 4, !tbaa !265
  br label %62

62:                                               ; preds = %60, %50
  %63 = load ptr, ptr %6, align 8, !tbaa !260
  %64 = getelementptr inbounds nuw %struct.quic_listener_st, ptr %63, i32 0, i32 2
  %65 = load ptr, ptr %64, align 8, !tbaa !165
  %66 = call ptr @ossl_quic_engine_create_port(ptr noundef %65, ptr noundef %8)
  %67 = load ptr, ptr %6, align 8, !tbaa !260
  %68 = getelementptr inbounds nuw %struct.quic_listener_st, ptr %67, i32 0, i32 3
  store ptr %66, ptr %68, align 8, !tbaa !162
  %69 = load ptr, ptr %6, align 8, !tbaa !260
  %70 = getelementptr inbounds nuw %struct.quic_listener_st, ptr %69, i32 0, i32 3
  %71 = load ptr, ptr %70, align 8, !tbaa !162
  %72 = icmp eq ptr %71, null
  br i1 %72, label %73, label %75

73:                                               ; preds = %62
  %74 = call i32 (ptr, ptr, i32, ptr, i32, ptr, ...) @quic_raise_non_normal_error(ptr noundef null, ptr noundef @.str, i32 noundef 4268, ptr noundef @__func__.ossl_quic_new_listener, i32 noundef 786691, ptr noundef null)
  br label %95

75:                                               ; preds = %62
  %76 = load ptr, ptr %6, align 8, !tbaa !260
  %77 = getelementptr inbounds nuw %struct.quic_listener_st, ptr %76, i32 0, i32 3
  %78 = load ptr, ptr %77, align 8, !tbaa !162
  call void @ossl_quic_port_set_allow_incoming(ptr noundef %78, i32 noundef 1)
  %79 = load ptr, ptr %6, align 8, !tbaa !260
  %80 = getelementptr inbounds nuw %struct.quic_listener_st, ptr %79, i32 0, i32 0
  %81 = load ptr, ptr %4, align 8, !tbaa !3
  %82 = load ptr, ptr %6, align 8, !tbaa !260
  %83 = getelementptr inbounds nuw %struct.quic_listener_st, ptr %82, i32 0, i32 2
  %84 = load ptr, ptr %83, align 8, !tbaa !165
  %85 = load ptr, ptr %6, align 8, !tbaa !260
  %86 = getelementptr inbounds nuw %struct.quic_listener_st, ptr %85, i32 0, i32 3
  %87 = load ptr, ptr %86, align 8, !tbaa !162
  %88 = call i32 @ossl_quic_obj_init(ptr noundef %80, ptr noundef %81, i32 noundef 130, ptr noundef null, ptr noundef %84, ptr noundef %87)
  %89 = icmp ne i32 %88, 0
  br i1 %89, label %91, label %90

90:                                               ; preds = %75
  br label %95

91:                                               ; preds = %75
  %92 = load ptr, ptr %6, align 8, !tbaa !260
  %93 = getelementptr inbounds nuw %struct.quic_listener_st, ptr %92, i32 0, i32 0
  %94 = getelementptr inbounds nuw %struct.quic_obj_st, ptr %93, i32 0, i32 0
  store ptr %94, ptr %3, align 8
  store i32 1, ptr %9, align 4
  br label %106

95:                                               ; preds = %90, %73, %48, %19, %12
  %96 = load ptr, ptr %6, align 8, !tbaa !260
  %97 = icmp ne ptr %96, null
  br i1 %97, label %98, label %102

98:                                               ; preds = %95
  %99 = load ptr, ptr %6, align 8, !tbaa !260
  %100 = getelementptr inbounds nuw %struct.quic_listener_st, ptr %99, i32 0, i32 2
  %101 = load ptr, ptr %100, align 8, !tbaa !165
  call void @ossl_quic_engine_free(ptr noundef %101)
  br label %102

102:                                              ; preds = %98, %95
  %103 = load ptr, ptr %6, align 8, !tbaa !260
  %104 = getelementptr inbounds nuw %struct.quic_listener_st, ptr %103, i32 0, i32 4
  call void @ossl_crypto_mutex_free(ptr noundef %104)
  %105 = load ptr, ptr %6, align 8, !tbaa !260
  call void @CRYPTO_free(ptr noundef %105, ptr noundef @.str, i32 noundef 4290)
  store ptr null, ptr %3, align 8
  store i32 1, ptr %9, align 4
  br label %106

106:                                              ; preds = %102, %91
  call void @llvm.lifetime.end.p0(i64 40, ptr %8) #10
  call void @llvm.lifetime.end.p0(i64 32, ptr %7) #10
  call void @llvm.lifetime.end.p0(i64 8, ptr %6) #10
  %107 = load ptr, ptr %3, align 8
  ret ptr %107
}