; Function Attrs: nounwind uwtable
define ptr @ossl_quic_new_listener(ptr noundef %0, i64 noundef %1) local_unnamed_addr #0 {
  %3 = alloca %struct.quic_engine_args_st, align 8
  %4 = alloca %struct.quic_port_args_st, align 8
  call void @llvm.lifetime.start.p0(i64 32, ptr nonnull %3) #12
  call void @llvm.memset.p0.i64(ptr noundef nonnull align 8 dereferenceable(32) %3, i8 0, i64 32, i1 false)
  call void @llvm.lifetime.start.p0(i64 40, ptr nonnull %4) #12
  call void @llvm.memset.p0.i64(ptr noundef nonnull align 8 dereferenceable(40) %4, i8 0, i64 40, i1 false)
  %5 = tail call noalias ptr @CRYPTO_zalloc(i64 noundef 160, ptr noundef nonnull @.str, i32 noundef 4234) #12
  %6 = icmp eq ptr %5, null
  br i1 %6, label %48, label %7

7:                                                ; preds = %2
  %8 = tail call ptr @ossl_crypto_mutex_new() #12
  %9 = getelementptr inbounds nuw i8, ptr %5, i64 144
  store ptr %8, ptr %9, align 8, !tbaa !220
  %10 = icmp eq ptr %8, null
  br i1 %10, label %11, label %12

11:                                               ; preds = %7
  tail call void (ptr, ptr, i32, ptr, i32, ptr, ...) @quic_raise_non_normal_error(ptr noundef null, ptr nonnull poison, i32 noundef 4241, ptr noundef nonnull @__func__.ossl_quic_new_listener, i32 noundef 524303, ptr noundef null)
  br label %49

12:                                               ; preds = %7
  %13 = load ptr, ptr %0, align 8, !tbaa !102
  store ptr %13, ptr %3, align 8, !tbaa !103
  %14 = getelementptr inbounds nuw i8, ptr %0, i64 1152
  %15 = load ptr, ptr %14, align 8, !tbaa !105
  %16 = getelementptr inbounds nuw i8, ptr %3, i64 8
  store ptr %15, ptr %16, align 8, !tbaa !106
  %17 = getelementptr inbounds nuw i8, ptr %3, i64 16
  store ptr %8, ptr %17, align 8, !tbaa !107
  %18 = getelementptr inbounds nuw i8, ptr %0, i64 1752
  %19 = load i64, ptr %18, align 8, !tbaa !87
  %20 = and i64 %19, 4
  %.not.i = icmp eq i64 %20, 0
  %21 = and i64 %19, 10
  %22 = icmp ne i64 %21, 10
  %narrow.i.not = and i1 %.not.i, %22
  br i1 %narrow.i.not, label %25, label %23

23:                                               ; preds = %12
  %24 = getelementptr inbounds nuw i8, ptr %3, i64 24
  store i64 1, ptr %24, align 8, !tbaa !108
  br label %25

25:                                               ; preds = %23, %12
  %26 = call ptr @ossl_quic_engine_new(ptr noundef nonnull %3) #12
  %27 = getelementptr inbounds nuw i8, ptr %5, i64 128
  store ptr %26, ptr %27, align 8, !tbaa !142
  %28 = icmp eq ptr %26, null
  br i1 %28, label %29, label %30

29:                                               ; preds = %25
  call void (ptr, ptr, i32, ptr, i32, ptr, ...) @quic_raise_non_normal_error(ptr noundef null, ptr nonnull poison, i32 noundef 4256, ptr noundef nonnull @__func__.ossl_quic_new_listener, i32 noundef 786691, ptr noundef null)
  br label %49

30:                                               ; preds = %25
  %31 = getelementptr inbounds nuw i8, ptr %4, i64 24
  store ptr %0, ptr %31, align 8, !tbaa !110
  %32 = getelementptr inbounds nuw i8, ptr %4, i64 32
  store i32 1, ptr %32, align 8, !tbaa !221
  %33 = getelementptr inbounds nuw i8, ptr %4, i64 8
  store ptr @alloc_port_user_ssl, ptr %33, align 8, !tbaa !222
  %34 = getelementptr inbounds nuw i8, ptr %4, i64 16
  store ptr %5, ptr %34, align 8, !tbaa !223
  %35 = and i64 %1, 2
  %36 = icmp eq i64 %35, 0
  br i1 %36, label %37, label %39

37:                                               ; preds = %30
  %38 = getelementptr inbounds nuw i8, ptr %4, i64 36
  store i32 1, ptr %38, align 4, !tbaa !224
  br label %39

39:                                               ; preds = %37, %30
  %40 = call ptr @ossl_quic_engine_create_port(ptr noundef nonnull %26, ptr noundef nonnull %4) #12
  %41 = getelementptr inbounds nuw i8, ptr %5, i64 136
  store ptr %40, ptr %41, align 8, !tbaa !139
  %42 = icmp eq ptr %40, null
  br i1 %42, label %43, label %44

43:                                               ; preds = %39
  call void (ptr, ptr, i32, ptr, i32, ptr, ...) @quic_raise_non_normal_error(ptr noundef null, ptr nonnull poison, i32 noundef 4268, ptr noundef nonnull @__func__.ossl_quic_new_listener, i32 noundef 786691, ptr noundef null)
  br label %49

44:                                               ; preds = %39
  call void @ossl_quic_port_set_allow_incoming(ptr noundef nonnull %40, i32 noundef 1) #12
  %45 = load ptr, ptr %27, align 8, !tbaa !142
  %46 = load ptr, ptr %41, align 8, !tbaa !139
  %47 = call i32 @ossl_quic_obj_init(ptr noundef nonnull %5, ptr noundef nonnull %0, i32 noundef 130, ptr noundef null, ptr noundef %45, ptr noundef %46) #12
  %.not24 = icmp eq i32 %47, 0
  br i1 %.not24, label %49, label %54

48:                                               ; preds = %2
  tail call void (ptr, ptr, i32, ptr, i32, ptr, ...) @quic_raise_non_normal_error(ptr noundef null, ptr nonnull poison, i32 noundef 4235, ptr noundef nonnull @__func__.ossl_quic_new_listener, i32 noundef 524303, ptr noundef null)
  br label %52

49:                                               ; preds = %44, %43, %29, %11
  %50 = getelementptr inbounds nuw i8, ptr %5, i64 128
  %51 = load ptr, ptr %50, align 8, !tbaa !142
  call void @ossl_quic_engine_free(ptr noundef %51) #12
  br label %52

52:                                               ; preds = %48, %49
  %53 = getelementptr inbounds nuw i8, ptr %5, i64 144
  call void @ossl_crypto_mutex_free(ptr noundef nonnull %53) #12
  call void @CRYPTO_free(ptr noundef %5, ptr noundef nonnull @.str, i32 noundef 4290) #12
  br label %54

54:                                               ; preds = %44, %52
  %.0 = phi ptr [ null, %52 ], [ %5, %44 ]
  call void @llvm.lifetime.end.p0(i64 40, ptr nonnull %4) #12
  call void @llvm.lifetime.end.p0(i64 32, ptr nonnull %3) #12
  ret ptr %.0
}